target datalayout = "e-m:e-p270:32:32-p271:32:32-p272:64:64-i64:64-i128:128-f80:128-n8:16:32:64-S128"
target triple = "x86_64-pc-linux-gnu"

%struct._lv_image_decoder_t = type { ptr, ptr, ptr, ptr, ptr, ptr, ptr }

; Function Attrs: nounwind uwtable
define void @lv_svg_decoder_deinit() #0 {
  %1 = alloca ptr, align 8
  call void @llvm.lifetime.start.p0(i64 8, ptr %1) #4
  store ptr null, ptr %1, align 8, !tbaa !3
  br label %2

2:                                                ; preds = %13, %0
  %3 = load ptr, ptr %1, align 8, !tbaa !3
  %4 = call ptr @lv_image_decoder_get_next(ptr noundef %3)
  store ptr %4, ptr %1, align 8, !tbaa !3
  %5 = icmp ne ptr %4, null
  br i1 %5, label %6, label %14

6:                                                ; preds = %2
  %7 = load ptr, ptr %1, align 8, !tbaa !3
  %8 = getelementptr inbounds nuw %struct._lv_image_decoder_t, ptr %7, i32 0, i32 0
  %9 = load ptr, ptr %8, align 8, !tbaa !77
  %10 = icmp eq ptr %9, @svg_decoder_info
  br i1 %10, label %11, label %13

11:                                               ; preds = %6
  %12 = load ptr, ptr %1, align 8, !tbaa !3
  call void @lv_image_decoder_delete(ptr noundef %12)
  br label %14

13:                                               ; preds = %6
  br label %2, !llvm.loop !78

14:                                               ; preds = %11, %2
  call void @llvm.lifetime.end.p0(i64 8, ptr %1) #4
  ret void
}