; Function Attrs: nounwind uwtable
define void @lv_svg_decoder_deinit() local_unnamed_addr #0 {
  br label %1

1:                                                ; preds = %3, %0
  %.0 = phi ptr [ null, %0 ], [ %2, %3 ]
  %2 = tail call ptr @lv_image_decoder_get_next(ptr noundef %.0) #4
  %.not = icmp eq ptr %2, null
  br i1 %.not, label %.loopexit, label %3

3:                                                ; preds = %1
  %4 = load ptr, ptr %2, align 8, !tbaa !69
  %5 = icmp eq ptr %4, @svg_decoder_info
  br i1 %5, label %6, label %1, !llvm.loop !70

6:                                                ; preds = %3
  tail call void @lv_image_decoder_delete(ptr noundef nonnull %2) #4
  br label %.loopexit

.loopexit:                                        ; preds = %1, %6
  ret void
}